target datalayout = "e-m:e-p270:32:32-p271:32:32-p272:64:64-i64:64-i128:128-f80:128-n8:16:32:64-S128"
target triple = "x86_64-unknown-linux-gnu"

%"struct.std::__detail::_List_node_header" = type { %"struct.std::__detail::_List_node_base", i64 }
%"struct.std::__detail::_List_node_base" = type { ptr, ptr }
%"class.net::QuicTime" = type { i64 }
%"class.net::QuicBufferedPacketStore" = type { %class.linked_hash_map, %"class.net::QuicTime::Delta", ptr, ptr, %"class.std::unique_ptr.15", %class.linked_hash_map.23 }
%class.linked_hash_map = type { %"class.std::unordered_map", %"class.std::__cxx11::list.10" }
%"class.std::unordered_map" = type { %"class.std::_Hashtable" }
%"class.std::_Hashtable" = type { ptr, i64, %"struct.std::__detail::_Hash_node_base", i64, %"struct.std::__detail::_Prime_rehash_policy", ptr }
%"struct.std::__detail::_Hash_node_base" = type { ptr }
%"struct.std::__detail::_Prime_rehash_policy" = type { float, i64 }
%"class.std::__cxx11::list.10" = type { %"class.std::__cxx11::_List_base.11" }
%"class.std::__cxx11::_List_base.11" = type { %"struct.std::__cxx11::_List_base<std::pair<unsigned long, net::QuicBufferedPacketStore::BufferedPacketList>, std::allocator<std::pair<unsigned long, net::QuicBufferedPacketStore::BufferedPacketList>>>::_List_impl" }
%"struct.std::__cxx11::_List_base<std::pair<unsigned long, net::QuicBufferedPacketStore::BufferedPacketList>, std::allocator<std::pair<unsigned long, net::QuicBufferedPacketStore::BufferedPacketList>>>::_List_impl" = type { %"struct.std::__detail::_List_node_header" }
%"class.net::QuicTime::Delta" = type { %"class.base::TimeDelta", i64 }
%"class.base::TimeDelta" = type { i64 }
%"class.std::unique_ptr.15" = type { %"struct.std::__uniq_ptr_data.16" }
%"struct.std::__uniq_ptr_data.16" = type { %"class.std::__uniq_ptr_impl.17" }
%"class.std::__uniq_ptr_impl.17" = type { %"class.std::tuple.18" }
%"class.std::tuple.18" = type { %"struct.std::_Tuple_impl.19" }
%"struct.std::_Tuple_impl.19" = type { %"struct.std::_Head_base.22" }
%"struct.std::_Head_base.22" = type { ptr }
%class.linked_hash_map.23 = type { %"class.std::unordered_map.24", %"class.std::__cxx11::list.38" }
%"class.std::unordered_map.24" = type { %"class.std::_Hashtable.25" }
%"class.std::_Hashtable.25" = type { ptr, i64, %"struct.std::__detail::_Hash_node_base", i64, %"struct.std::__detail::_Prime_rehash_policy", ptr }
%"class.std::__cxx11::list.38" = type { %"class.std::__cxx11::_List_base.39" }
%"class.std::__cxx11::_List_base.39" = type { %"struct.std::__cxx11::_List_base<std::pair<unsigned long, bool>, std::allocator<std::pair<unsigned long, bool>>>::_List_impl" }
%"struct.std::__cxx11::_List_base<std::pair<unsigned long, bool>, std::allocator<std::pair<unsigned long, bool>>>::_List_impl" = type { %"struct.std::__detail::_List_node_header" }

; Function Attrs: mustprogress nounwind uwtable
define linkonce_odr dso_local noundef nonnull align 8 dereferenceable(8) ptr @_ZNSt10_Head_baseILm0EPN3net9QuicAlarmELb0EE7_M_headERKS3_(ptr noundef nonnull align 8 dereferenceable(8) %__b) #1 comdat align 2 {
entry:
  %__b.addr = alloca ptr, align 8
  store ptr %__b, ptr %__b.addr, align 8
  %0 = load ptr, ptr %__b.addr, align 8
  %_M_head_impl = getelementptr inbounds %"struct.std::_Head_base.22", ptr %0, i32 0, i32 0
  ret ptr %_M_head_impl
}

; Function Attrs: mustprogress nounwind uwtable
define linkonce_odr dso_local noundef nonnull align 8 dereferenceable(8) ptr @_ZNSt11_Tuple_implILm0EJPN3net9QuicAlarmESt14default_deleteIS1_EEE7_M_headERKS5_(ptr noundef nonnull align 8 dereferenceable(8) %__t) #1 comdat align 2 {
entry:
  %__t.addr = alloca ptr, align 8
  store ptr %__t, ptr %__t.addr, align 8
  %0 = load ptr, ptr %__t.addr, align 8
  %call = call noundef nonnull align 8 dereferenceable(8) ptr @_ZNSt10_Head_baseILm0EPN3net9QuicAlarmELb0EE7_M_headERKS3_(ptr noundef nonnull align 8 dereferenceable(8) %0) #12
  ret ptr %call
}

; Function Attrs: mustprogress nounwind uwtable
define linkonce_odr dso_local noundef nonnull align 8 dereferenceable(8) ptr @_ZSt12__get_helperILm0EPN3net9QuicAlarmEJSt14default_deleteIS1_EEERKT0_RKSt11_Tuple_implIXT_EJS5_DpT1_EE(ptr noundef nonnull align 8 dereferenceable(8) %__t) #1 comdat {
entry:
  %__t.addr = alloca ptr, align 8
  store ptr %__t, ptr %__t.addr, align 8
  %0 = load ptr, ptr %__t.addr, align 8
  %call = call noundef nonnull align 8 dereferenceable(8) ptr @_ZNSt11_Tuple_implILm0EJPN3net9QuicAlarmESt14default_deleteIS1_EEE7_M_headERKS5_(ptr noundef nonnull align 8 dereferenceable(8) %0) #12
  ret ptr %call
}

; Function Attrs: mustprogress nounwind uwtable
define linkonce_odr dso_local noundef nonnull align 8 dereferenceable(8) ptr @_ZSt3getILm0EJPN3net9QuicAlarmESt14default_deleteIS1_EEERKNSt13tuple_elementIXT_ESt5tupleIJDpT0_EEE4typeERKS9_(ptr noundef nonnull align 8 dereferenceable(8) %__t) #1 comdat {
entry:
  %__t.addr = alloca ptr, align 8
  store ptr %__t, ptr %__t.addr, align 8
  %0 = load ptr, ptr %__t.addr, align 8
  %call = call noundef nonnull align 8 dereferenceable(8) ptr @_ZSt12__get_helperILm0EPN3net9QuicAlarmEJSt14default_deleteIS1_EEERKT0_RKSt11_Tuple_implIXT_EJS5_DpT1_EE(ptr noundef nonnull align 8 dereferenceable(8) %0) #12
  ret ptr %call
}

; Function Attrs: mustprogress nounwind uwtable
define linkonce_odr dso_local noundef ptr @_ZNKSt15__uniq_ptr_implIN3net9QuicAlarmESt14default_deleteIS1_EE6_M_ptrEv(ptr noundef nonnull align 8 dereferenceable(8) %this) #1 comdat align 2 {
entry:
  %this.addr = alloca ptr, align 8
  store ptr %this, ptr %this.addr, align 8
  %this1 = load ptr, ptr %this.addr, align 8
  %_M_t = getelementptr inbounds %"class.std::__uniq_ptr_impl.17", ptr %this1, i32 0, i32 0
  %call = call noundef nonnull align 8 dereferenceable(8) ptr @_ZSt3getILm0EJPN3net9QuicAlarmESt14default_deleteIS1_EEERKNSt13tuple_elementIXT_ESt5tupleIJDpT0_EEE4typeERKS9_(ptr noundef nonnull align 8 dereferenceable(8) %_M_t) #12
  %0 = load ptr, ptr %call, align 8
  ret ptr %0
}

; Function Attrs: mustprogress nounwind uwtable
define linkonce_odr dso_local void @_ZN3net8QuicTimeC2El(ptr noundef nonnull align 8 dereferenceable(8) %this, i64 noundef %time) unnamed_addr #1 comdat align 2 {
entry:
  %this.addr = alloca ptr, align 8
  %time.addr = alloca i64, align 8
  store ptr %this, ptr %this.addr, align 8
  store i64 %time, ptr %time.addr, align 8
  %this1 = load ptr, ptr %this.addr, align 8
  %time_ = getelementptr inbounds %"class.net::QuicTime", ptr %this1, i32 0, i32 0
  %0 = load i64, ptr %time.addr, align 8
  store i64 %0, ptr %time_, align 8
  ret void
}

; Function Attrs: mustprogress nounwind uwtable
define linkonce_odr dso_local noundef ptr @_ZNKSt10unique_ptrIN3net9QuicAlarmESt14default_deleteIS1_EE3getEv(ptr noundef nonnull align 8 dereferenceable(8) %this) #1 comdat align 2 {
entry:
  %this.addr = alloca ptr, align 8
  store ptr %this, ptr %this.addr, align 8
  %this1 = load ptr, ptr %this.addr, align 8
  %_M_t = getelementptr inbounds %"class.std::unique_ptr.15", ptr %this1, i32 0, i32 0
  %call = call noundef ptr @_ZNKSt15__uniq_ptr_implIN3net9QuicAlarmESt14default_deleteIS1_EE6_M_ptrEv(ptr noundef nonnull align 8 dereferenceable(8) %_M_t) #12
  ret ptr %call
}

; Function Attrs: mustprogress uwtable
define linkonce_odr dso_local i64 @_ZN3netplENS_8QuicTimeENS0_5DeltaE(i64 %lhs.coerce, i64 %rhs.coerce0, i64 %rhs.coerce1) #0 comdat {
entry:
  %retval = alloca %"class.net::QuicTime", align 8
  %lhs = alloca %"class.net::QuicTime", align 8
  %rhs = alloca %"class.net::QuicTime::Delta", align 8
  %coerce.dive = getelementptr inbounds %"class.net::QuicTime", ptr %lhs, i32 0, i32 0
  store i64 %lhs.coerce, ptr %coerce.dive, align 8
  %0 = getelementptr inbounds { i64, i64 }, ptr %rhs, i32 0, i32 0
  store i64 %rhs.coerce0, ptr %0, align 8
  %1 = getelementptr inbounds { i64, i64 }, ptr %rhs, i32 0, i32 1
  store i64 %rhs.coerce1, ptr %1, align 8
  %time_ = getelementptr inbounds %"class.net::QuicTime", ptr %lhs, i32 0, i32 0
  %2 = load i64, ptr %time_, align 8
  %time_offset_ = getelementptr inbounds %"class.net::QuicTime::Delta", ptr %rhs, i32 0, i32 1
  %3 = load i64, ptr %time_offset_, align 8
  %add = add nsw i64 %2, %3
  call void @_ZN3net8QuicTimeC2El(ptr noundef nonnull align 8 dereferenceable(8) %retval, i64 noundef %add)
  %coerce.dive1 = getelementptr inbounds %"class.net::QuicTime", ptr %retval, i32 0, i32 0
  %4 = load i64, ptr %coerce.dive1, align 8
  ret i64 %4
}

; Function Attrs: mustprogress nounwind uwtable
define linkonce_odr dso_local noundef ptr @_ZNKSt10unique_ptrIN3net9QuicAlarmESt14default_deleteIS1_EEptEv(ptr noundef nonnull align 8 dereferenceable(8) %this) #1 comdat align 2 {
entry:
  %this.addr = alloca ptr, align 8
  store ptr %this, ptr %this.addr, align 8
  %this1 = load ptr, ptr %this.addr, align 8
  %call = call noundef ptr @_ZNKSt10unique_ptrIN3net9QuicAlarmESt14default_deleteIS1_EE3getEv(ptr noundef nonnull align 8 dereferenceable(8) %this1) #12
  ret ptr %call
}

; Function Attrs: mustprogress uwtable
define dso_local void @_ZN3net23QuicBufferedPacketStore23MaybeSetExpirationAlarmEv(ptr noundef nonnull align 8 dereferenceable(200) %this) #0 align 2 {
entry:
  %this.addr = alloca ptr, align 8
  %agg.tmp = alloca %"class.net::QuicTime", align 8
  %agg.tmp5 = alloca %"class.net::QuicTime", align 8
  %agg.tmp7 = alloca %"class.net::QuicTime::Delta", align 8
  store ptr %this, ptr %this.addr, align 8
  %this1 = load ptr, ptr %this.addr, align 8
  %expiration_alarm_ = getelementptr inbounds %"class.net::QuicBufferedPacketStore", ptr %this1, i32 0, i32 4
  %call = call noundef ptr @_ZNKSt10unique_ptrIN3net9QuicAlarmESt14default_deleteIS1_EEptEv(ptr noundef nonnull align 8 dereferenceable(8) %expiration_alarm_) #12
  %call2 = call noundef zeroext i1 @_ZNK3net9QuicAlarm5IsSetEv(ptr noundef nonnull align 8 dereferenceable(24) %call)
  br i1 %call2, label %if.end, label %if.then

if.then:                                          ; preds = %entry
  %expiration_alarm_3 = getelementptr inbounds %"class.net::QuicBufferedPacketStore", ptr %this1, i32 0, i32 4
  %call4 = call noundef ptr @_ZNKSt10unique_ptrIN3net9QuicAlarmESt14default_deleteIS1_EEptEv(ptr noundef nonnull align 8 dereferenceable(8) %expiration_alarm_3) #12
  %clock_ = getelementptr inbounds %"class.net::QuicBufferedPacketStore", ptr %this1, i32 0, i32 3
  %0 = load ptr, ptr %clock_, align 8
  %vtable = load ptr, ptr %0, align 8
  %vfn = getelementptr inbounds ptr, ptr %vtable, i64 2
  %1 = load ptr, ptr %vfn, align 8
  %call6 = call i64 %1(ptr noundef nonnull align 8 dereferenceable(8) %0)
  %coerce.dive = getelementptr inbounds %"class.net::QuicTime", ptr %agg.tmp5, i32 0, i32 0
  store i64 %call6, ptr %coerce.dive, align 8
  %connection_life_span_ = getelementptr inbounds %"class.net::QuicBufferedPacketStore", ptr %this1, i32 0, i32 1
  call void @llvm.memcpy.p0.p0.i64(ptr align 8 %agg.tmp7, ptr align 8 %connection_life_span_, i64 16, i1 false)
  %coerce.dive8 = getelementptr inbounds %"class.net::QuicTime", ptr %agg.tmp5, i32 0, i32 0
  %2 = load i64, ptr %coerce.dive8, align 8
  %3 = getelementptr inbounds { i64, i64 }, ptr %agg.tmp7, i32 0, i32 0
  %4 = load i64, ptr %3, align 8
  %5 = getelementptr inbounds { i64, i64 }, ptr %agg.tmp7, i32 0, i32 1
  %6 = load i64, ptr %5, align 8
  %call9 = call i64 @_ZN3netplENS_8QuicTimeENS0_5DeltaE(i64 %2, i64 %4, i64 %6)
  %coerce.dive10 = getelementptr inbounds %"class.net::QuicTime", ptr %agg.tmp, i32 0, i32 0
  store i64 %call9, ptr %coerce.dive10, align 8
  %coerce.dive11 = getelementptr inbounds %"class.net::QuicTime", ptr %agg.tmp, i32 0, i32 0
  %7 = load i64, ptr %coerce.dive11, align 8
  call void @_ZN3net9QuicAlarm3SetENS_8QuicTimeE(ptr noundef nonnull align 8 dereferenceable(24) %call4, i64 %7)
  br label %if.end

if.end:                                           ; preds = %if.then, %entry
  ret void
}