; Function Attrs: mustprogress uwtable
define dso_local void @_ZN3net23QuicBufferedPacketStore23MaybeSetExpirationAlarmEv(ptr nocapture noundef nonnull readonly align 8 dereferenceable(200) %this) local_unnamed_addr #0 align 2 {
entry:
  %expiration_alarm_ = getelementptr inbounds i8, ptr %this, i64 112
  %0 = load ptr, ptr %expiration_alarm_, align 8
  %call2 = tail call noundef zeroext i1 @_ZNK3net9QuicAlarm5IsSetEv(ptr noundef nonnull align 8 dereferenceable(24) %0)
  br i1 %call2, label %if.end, label %if.then

if.then:                                          ; preds = %entry
  %1 = load ptr, ptr %expiration_alarm_, align 8
  %clock_ = getelementptr inbounds i8, ptr %this, i64 104
  %2 = load ptr, ptr %clock_, align 8
  %vtable = load ptr, ptr %2, align 8
  %vfn = getelementptr inbounds i8, ptr %vtable, i64 16
  %3 = load ptr, ptr %vfn, align 8
  %call6 = tail call i64 %3(ptr noundef nonnull align 8 dereferenceable(8) %2)
  %agg.tmp7.sroa.2.0.connection_life_span_.sroa_idx = getelementptr inbounds i8, ptr %this, i64 88
  %agg.tmp7.sroa.2.0.copyload = load i64, ptr %agg.tmp7.sroa.2.0.connection_life_span_.sroa_idx, align 8
  %add.i = add nsw i64 %agg.tmp7.sroa.2.0.copyload, %call6
  tail call void @_ZN3net9QuicAlarm3SetENS_8QuicTimeE(ptr noundef nonnull align 8 dereferenceable(24) %1, i64 %add.i)
  br label %if.end

if.end:                                           ; preds = %if.then, %entry
  ret void
}